target datalayout = "e-m:e-p270:32:32-p271:32:32-p272:64:64-i64:64-i128:128-f80:128-n8:16:32:64-S128"
target triple = "x86_64-pc-linux-gnu"

%struct.parameters_ = type { i32, i32, i64, i64, i64, i32, i32, [32 x i64], [32 x i64], [32 x i64], [32 x i32], i64, i64, i32, i32, i32, i32, i64, i64 }

@stderr = external global ptr, align 8
@buf_offset = internal global [32 x i64] zeroinitializer, align 16
@offset = internal global [32 x i64] zeroinitializer, align 16
@.str.7 = private unnamed_addr constant [45 x i8] c"*** Assertion failed (%s) at line %4d in %s\0A\00", align 1
@.str.9 = private unnamed_addr constant [117 x i8] c"generated/home/dtcxzyw/WorkSpace/Projects/compilers/llvm-opt-benchmark/bench/hdf5/hdf5/tools/src/h5perf/sio_engine.c\00", align 1
@buf_p = internal global ptr null, align 8
@cont_dim = internal global i32 0, align 4
@cont_size = internal global i64 0, align 8
@.str.41 = private unnamed_addr constant [10 x i8] c"POSIXSEEK\00", align 1
@.str.47 = private unnamed_addr constant [10 x i8] c"POSIXREAD\00", align 1

; Function Attrs: nounwind uwtable
define internal i32 @posix_buffer_read(i32 noundef %0, ptr noundef %1, ptr noundef %2, ptr noundef %3) #0 {
  %5 = alloca i32, align 4
  %6 = alloca i32, align 4
  %7 = alloca ptr, align 8
  %8 = alloca ptr, align 8
  %9 = alloca ptr, align 8
  %10 = alloca i32, align 4
  %11 = alloca i64, align 8
  %12 = alloca i64, align 8
  %13 = alloca i64, align 8
  %14 = alloca i32, align 4
  %15 = alloca i32, align 4
  %16 = alloca i32, align 4
  %17 = alloca i32, align 4
  store i32 %0, ptr %6, align 4, !tbaa !11
  store ptr %1, ptr %7, align 8, !tbaa !34
  store ptr %2, ptr %8, align 8, !tbaa !28
  store ptr %3, ptr %9, align 8, !tbaa !34
  call void @llvm.lifetime.start.p0(i64 4, ptr %10) #10
  store i32 0, ptr %10, align 4, !tbaa !11
  %18 = load i32, ptr %6, align 4, !tbaa !11
  %19 = load ptr, ptr %8, align 8, !tbaa !28
  %20 = getelementptr inbounds nuw %struct.parameters_, ptr %19, i32 0, i32 6
  %21 = load i32, ptr %20, align 4, !tbaa !23
  %22 = sub nsw i32 %21, 1
  %23 = icmp slt i32 %18, %22
  br i1 %23, label %24, label %59

24:                                               ; preds = %4
  %25 = load i32, ptr %6, align 4, !tbaa !11
  %26 = load i32, ptr @cont_dim, align 4, !tbaa !11
  %27 = icmp ne i32 %25, %26
  br i1 %27, label %28, label %59

28:                                               ; preds = %24
  call void @llvm.lifetime.start.p0(i64 8, ptr %11) #10
  store i64 0, ptr %11, align 8, !tbaa !22
  br label %29

29:                                               ; preds = %55, %28
  %30 = load i64, ptr %11, align 8, !tbaa !22
  %31 = load ptr, ptr %8, align 8, !tbaa !28
  %32 = getelementptr inbounds nuw %struct.parameters_, ptr %31, i32 0, i32 8
  %33 = load i32, ptr %6, align 4, !tbaa !11
  %34 = sext i32 %33 to i64
  %35 = getelementptr inbounds [32 x i64], ptr %32, i64 0, i64 %34
  %36 = load i64, ptr %35, align 8, !tbaa !22
  %37 = icmp ult i64 %30, %36
  br i1 %37, label %38, label %58

38:                                               ; preds = %29
  %39 = load i64, ptr %11, align 8, !tbaa !22
  %40 = load i32, ptr %6, align 4, !tbaa !11
  %41 = sext i32 %40 to i64
  %42 = getelementptr inbounds [32 x i64], ptr @buf_offset, i64 0, i64 %41
  store i64 %39, ptr %42, align 8, !tbaa !22
  %43 = load i32, ptr %6, align 4, !tbaa !11
  %44 = add nsw i32 %43, 1
  %45 = load ptr, ptr %7, align 8, !tbaa !34
  %46 = load ptr, ptr %8, align 8, !tbaa !28
  %47 = load ptr, ptr %9, align 8, !tbaa !34
  %48 = call i32 @posix_buffer_read(i32 noundef %44, ptr noundef %45, ptr noundef %46, ptr noundef %47)
  store i32 %48, ptr %10, align 4, !tbaa !11
  %49 = load i32, ptr %6, align 4, !tbaa !11
  %50 = add nsw i32 %49, 1
  %51 = load i32, ptr @cont_dim, align 4, !tbaa !11
  %52 = icmp eq i32 %50, %51
  br i1 %52, label %53, label %54

53:                                               ; preds = %38
  br label %58

54:                                               ; preds = %38
  br label %55

55:                                               ; preds = %54
  %56 = load i64, ptr %11, align 8, !tbaa !22
  %57 = add i64 %56, 1
  store i64 %57, ptr %11, align 8, !tbaa !22
  br label %29, !llvm.loop !64

58:                                               ; preds = %53, %29
  call void @llvm.lifetime.end.p0(i64 8, ptr %11) #10
  br label %158

59:                                               ; preds = %24, %4
  call void @llvm.lifetime.start.p0(i64 8, ptr %12) #10
  call void @llvm.lifetime.start.p0(i64 8, ptr %13) #10
  store i64 0, ptr %13, align 8, !tbaa !22
  call void @llvm.lifetime.start.p0(i64 4, ptr %14) #10
  call void @llvm.lifetime.start.p0(i64 4, ptr %15) #10
  call void @llvm.lifetime.start.p0(i64 4, ptr %16) #10
  %60 = load i32, ptr %6, align 4, !tbaa !11
  %61 = sext i32 %60 to i64
  %62 = getelementptr inbounds [32 x i64], ptr @buf_offset, i64 0, i64 %61
  store i64 0, ptr %62, align 8, !tbaa !22
  store i32 0, ptr %14, align 4, !tbaa !11
  br label %63

63:                                               ; preds = %104, %59
  %64 = load i32, ptr %14, align 4, !tbaa !11
  %65 = load ptr, ptr %8, align 8, !tbaa !28
  %66 = getelementptr inbounds nuw %struct.parameters_, ptr %65, i32 0, i32 6
  %67 = load i32, ptr %66, align 4, !tbaa !23
  %68 = icmp slt i32 %64, %67
  br i1 %68, label %69, label %107

69:                                               ; preds = %63
  store i64 1, ptr %12, align 8, !tbaa !22
  %70 = load i32, ptr %14, align 4, !tbaa !11
  %71 = add nsw i32 %70, 1
  store i32 %71, ptr %15, align 4, !tbaa !11
  br label %72

72:                                               ; preds = %87, %69
  %73 = load i32, ptr %15, align 4, !tbaa !11
  %74 = load ptr, ptr %8, align 8, !tbaa !28
  %75 = getelementptr inbounds nuw %struct.parameters_, ptr %74, i32 0, i32 6
  %76 = load i32, ptr %75, align 4, !tbaa !23
  %77 = icmp slt i32 %73, %76
  br i1 %77, label %78, label %90

78:                                               ; preds = %72
  %79 = load ptr, ptr %8, align 8, !tbaa !28
  %80 = getelementptr inbounds nuw %struct.parameters_, ptr %79, i32 0, i32 7
  %81 = load i32, ptr %15, align 4, !tbaa !11
  %82 = sext i32 %81 to i64
  %83 = getelementptr inbounds [32 x i64], ptr %80, i64 0, i64 %82
  %84 = load i64, ptr %83, align 8, !tbaa !22
  %85 = load i64, ptr %12, align 8, !tbaa !22
  %86 = mul nsw i64 %85, %84
  store i64 %86, ptr %12, align 8, !tbaa !22
  br label %87

87:                                               ; preds = %78
  %88 = load i32, ptr %15, align 4, !tbaa !11
  %89 = add nsw i32 %88, 1
  store i32 %89, ptr %15, align 4, !tbaa !11
  br label %72, !llvm.loop !65

90:                                               ; preds = %72
  %91 = load i32, ptr %14, align 4, !tbaa !11
  %92 = sext i32 %91 to i64
  %93 = getelementptr inbounds [32 x i64], ptr @offset, i64 0, i64 %92
  %94 = load i64, ptr %93, align 8, !tbaa !22
  %95 = load i32, ptr %14, align 4, !tbaa !11
  %96 = sext i32 %95 to i64
  %97 = getelementptr inbounds [32 x i64], ptr @buf_offset, i64 0, i64 %96
  %98 = load i64, ptr %97, align 8, !tbaa !22
  %99 = add nsw i64 %94, %98
  %100 = load i64, ptr %12, align 8, !tbaa !22
  %101 = mul nsw i64 %99, %100
  %102 = load i64, ptr %13, align 8, !tbaa !22
  %103 = add nsw i64 %102, %101
  store i64 %103, ptr %13, align 8, !tbaa !22
  br label %104

104:                                              ; preds = %90
  %105 = load i32, ptr %14, align 4, !tbaa !11
  %106 = add nsw i32 %105, 1
  store i32 %106, ptr %14, align 4, !tbaa !11
  br label %63, !llvm.loop !66

107:                                              ; preds = %63
  %108 = load ptr, ptr %7, align 8, !tbaa !34
  %109 = load i32, ptr %108, align 8, !tbaa !16
  %110 = load i64, ptr %13, align 8, !tbaa !22
  %111 = call i64 @lseek64(i32 noundef %109, i64 noundef %110, i32 noundef 0) #10
  %112 = icmp slt i64 %111, 0
  %113 = select i1 %112, i32 -1, i32 0
  store i32 %113, ptr %16, align 4, !tbaa !11
  br label %114

114:                                              ; preds = %107
  %115 = load i32, ptr %16, align 4, !tbaa !11
  %116 = icmp eq i32 %115, 0
  br i1 %116, label %126, label %117

117:                                              ; preds = %114
  br label %118

118:                                              ; preds = %117
  %119 = load ptr, ptr @stderr, align 8, !tbaa !20
  %120 = call i32 (ptr, ptr, ...) @fprintf(ptr noundef %119, ptr noundef @.str.7, ptr noundef @.str.41, i32 noundef 1020, ptr noundef @.str.9) #10
  br label %121

121:                                              ; preds = %118
  br label %122

122:                                              ; preds = %121
  br label %123

123:                                              ; preds = %122
  store i32 -1, ptr %10, align 4, !tbaa !11
  store i32 17, ptr %17, align 4
  br label %155

124:                                              ; No predecessors!
  br label %125

125:                                              ; preds = %124
  br label %126

126:                                              ; preds = %125, %114
  br label %127

127:                                              ; preds = %126
  br label %128

128:                                              ; preds = %127
  %129 = load i64, ptr @cont_size, align 8, !tbaa !22
  %130 = load ptr, ptr %7, align 8, !tbaa !34
  %131 = load i32, ptr %130, align 8, !tbaa !16
  %132 = load ptr, ptr @buf_p, align 8, !tbaa !9
  %133 = load i64, ptr @cont_size, align 8, !tbaa !22
  %134 = call i64 @read(i32 noundef %131, ptr noundef %132, i64 noundef %133)
  %135 = icmp eq i64 %129, %134
  %136 = zext i1 %135 to i32
  store i32 %136, ptr %16, align 4, !tbaa !11
  br label %137

137:                                              ; preds = %128
  %138 = load i32, ptr %16, align 4, !tbaa !11
  %139 = icmp ne i32 %138, 0
  br i1 %139, label %149, label %140

140:                                              ; preds = %137
  br label %141

141:                                              ; preds = %140
  %142 = load ptr, ptr @stderr, align 8, !tbaa !20
  %143 = call i32 (ptr, ptr, ...) @fprintf(ptr noundef %142, ptr noundef @.str.7, ptr noundef @.str.47, i32 noundef 1023, ptr noundef @.str.9) #10
  br label %144

144:                                              ; preds = %141
  br label %145

145:                                              ; preds = %144
  br label %146

146:                                              ; preds = %145
  store i32 -1, ptr %10, align 4, !tbaa !11
  store i32 17, ptr %17, align 4
  br label %155

147:                                              ; No predecessors!
  br label %148

148:                                              ; preds = %147
  br label %149

149:                                              ; preds = %148, %137
  br label %150

150:                                              ; preds = %149
  br label %151

151:                                              ; preds = %150
  %152 = load i64, ptr @cont_size, align 8, !tbaa !22
  %153 = load ptr, ptr @buf_p, align 8, !tbaa !9
  %154 = getelementptr inbounds nuw i8, ptr %153, i64 %152
  store ptr %154, ptr @buf_p, align 8, !tbaa !9
  store i32 0, ptr %17, align 4
  br label %155

155:                                              ; preds = %146, %123, %151
  call void @llvm.lifetime.end.p0(i64 4, ptr %16) #10
  call void @llvm.lifetime.end.p0(i64 4, ptr %15) #10
  call void @llvm.lifetime.end.p0(i64 4, ptr %14) #10
  call void @llvm.lifetime.end.p0(i64 8, ptr %13) #10
  call void @llvm.lifetime.end.p0(i64 8, ptr %12) #10
  %156 = load i32, ptr %17, align 4
  switch i32 %156, label %161 [
    i32 0, label %157
    i32 17, label %159
  ]

157:                                              ; preds = %155
  br label %158

158:                                              ; preds = %157, %58
  br label %159

159:                                              ; preds = %158, %155
  %160 = load i32, ptr %10, align 4, !tbaa !11
  store i32 %160, ptr %5, align 4
  store i32 1, ptr %17, align 4
  br label %161

161:                                              ; preds = %159, %155
  call void @llvm.lifetime.end.p0(i64 4, ptr %10) #10
  %162 = load i32, ptr %5, align 4
  ret i32 %162
}