; Function Attrs: nounwind uwtable
define internal fastcc range(i32 -1, 1) i32 @posix_buffer_read(i32 noundef %0, ptr noundef nonnull readonly captures(none) %1, ptr noundef readonly captures(none) %2) unnamed_addr #0 {
  %4 = getelementptr inbounds nuw i8, ptr %2, i64 36
  %5 = load i32, ptr %4, align 4, !tbaa !18
  %6 = add nsw i32 %5, -1
  %7 = icmp sge i32 %0, %6
  %8 = load i32, ptr @cont_dim, align 4
  %.not = icmp eq i32 %0, %8
  %or.cond = select i1 %7, i1 true, i1 %.not
  %9 = sext i32 %0 to i64
  %10 = getelementptr inbounds [32 x i64], ptr @buf_offset, i64 0, i64 %9
  br i1 %or.cond, label %23, label %.preheader

.preheader:                                       ; preds = %3
  %11 = getelementptr inbounds nuw i8, ptr %2, i64 296
  %12 = getelementptr inbounds [32 x i64], ptr %11, i64 0, i64 %9
  %13 = load i64, ptr %12, align 8, !tbaa !17
  %.not14 = icmp eq i64 %13, 0
  br i1 %.not14, label %.loopexit, label %.lr.ph

.lr.ph:                                           ; preds = %.preheader
  %14 = add nsw i32 %0, 1
  br label %19

15:                                               ; preds = %19
  %16 = add nuw i64 %.0401, 1
  %17 = load i64, ptr %12, align 8, !tbaa !17
  %18 = icmp ult i64 %16, %17
  br i1 %18, label %19, label %.loopexit, !llvm.loop !55

19:                                               ; preds = %.lr.ph, %15
  %.0401 = phi i64 [ 0, %.lr.ph ], [ %16, %15 ]
  store i64 %.0401, ptr %10, align 8, !tbaa !17
  %20 = tail call fastcc i32 @posix_buffer_read(i32 noundef %14, ptr noundef %1, ptr noundef nonnull %2)
  %21 = load i32, ptr @cont_dim, align 4, !tbaa !19
  %22 = icmp eq i32 %14, %21
  br i1 %22, label %.loopexit, label %15

23:                                               ; preds = %3
  store i64 0, ptr %10, align 8, !tbaa !17
  %24 = icmp sgt i32 %5, 0
  br i1 %24, label %.lr.ph11, label %._crit_edge12

.lr.ph11:                                         ; preds = %23
  %25 = getelementptr inbounds nuw i8, ptr %2, i64 40
  %26 = zext nneg i32 %5 to i64
  %wide.trip.count23 = zext nneg i32 %5 to i64
  br label %27

27:                                               ; preds = %.lr.ph11, %._crit_edge
  %indvars.iv20 = phi i64 [ 0, %.lr.ph11 ], [ %indvars.iv.next21, %._crit_edge ]
  %indvars.iv = phi i64 [ 1, %.lr.ph11 ], [ %indvars.iv.next, %._crit_edge ]
  %.0388 = phi i64 [ 0, %.lr.ph11 ], [ %38, %._crit_edge ]
  %indvars.iv.next21 = add nuw nsw i64 %indvars.iv20, 1
  %28 = icmp samesign ult i64 %indvars.iv.next21, %26
  br i1 %28, label %.lr.ph6, label %._crit_edge

.lr.ph6:                                          ; preds = %27, %.lr.ph6
  %indvars.iv17 = phi i64 [ %indvars.iv.next18, %.lr.ph6 ], [ %indvars.iv, %27 ]
  %.0394 = phi i64 [ %31, %.lr.ph6 ], [ 1, %27 ]
  %29 = getelementptr inbounds nuw [32 x i64], ptr %25, i64 0, i64 %indvars.iv17
  %30 = load i64, ptr %29, align 8, !tbaa !17
  %31 = mul nsw i64 %30, %.0394
  %indvars.iv.next18 = add nuw nsw i64 %indvars.iv17, 1
  %exitcond.not = icmp eq i64 %indvars.iv.next18, %wide.trip.count23
  br i1 %exitcond.not, label %._crit_edge, label %.lr.ph6, !llvm.loop !56

._crit_edge:                                      ; preds = %.lr.ph6, %27
  %.039.lcssa = phi i64 [ 1, %27 ], [ %31, %.lr.ph6 ]
  %32 = getelementptr inbounds nuw [32 x i64], ptr @offset, i64 0, i64 %indvars.iv20
  %33 = load i64, ptr %32, align 8, !tbaa !17
  %34 = getelementptr inbounds nuw [32 x i64], ptr @buf_offset, i64 0, i64 %indvars.iv20
  %35 = load i64, ptr %34, align 8, !tbaa !17
  %36 = add nsw i64 %35, %33
  %37 = mul nsw i64 %36, %.039.lcssa
  %38 = add nsw i64 %37, %.0388
  %indvars.iv.next = add nuw nsw i64 %indvars.iv, 1
  %exitcond24.not = icmp eq i64 %indvars.iv.next21, %wide.trip.count23
  br i1 %exitcond24.not, label %._crit_edge12, label %27, !llvm.loop !57

._crit_edge12:                                    ; preds = %._crit_edge, %23
  %.038.lcssa = phi i64 [ 0, %23 ], [ %38, %._crit_edge ]
  %39 = load i32, ptr %1, align 8, !tbaa !10
  %40 = tail call i64 @lseek64(i32 noundef %39, i64 noundef %.038.lcssa, i32 noundef 0) #17
  %41 = icmp sgt i64 %40, -1
  br i1 %41, label %45, label %42

42:                                               ; preds = %._crit_edge12
  %43 = load ptr, ptr @stderr, align 8, !tbaa !11
  %44 = tail call i32 (ptr, ptr, ...) @fprintf(ptr noundef %43, ptr noundef nonnull @.str.7, ptr noundef nonnull @.str.41, i32 noundef 1020, ptr noundef nonnull @.str.9) #18
  br label %.loopexit

45:                                               ; preds = %._crit_edge12
  %46 = load i64, ptr @cont_size, align 8, !tbaa !17
  %47 = load i32, ptr %1, align 8, !tbaa !10
  %48 = load ptr, ptr @buf_p, align 8, !tbaa !26
  %49 = tail call i64 @read(i32 noundef %47, ptr noundef %48, i64 noundef %46) #17
  %50 = icmp eq i64 %46, %49
  br i1 %50, label %54, label %51

51:                                               ; preds = %45
  %52 = load ptr, ptr @stderr, align 8, !tbaa !11
  %53 = tail call i32 (ptr, ptr, ...) @fprintf(ptr noundef %52, ptr noundef nonnull @.str.7, ptr noundef nonnull @.str.47, i32 noundef 1023, ptr noundef nonnull @.str.9) #18
  br label %.loopexit

54:                                               ; preds = %45
  %55 = load i64, ptr @cont_size, align 8, !tbaa !17
  %56 = load ptr, ptr @buf_p, align 8, !tbaa !26
  %57 = getelementptr inbounds nuw i8, ptr %56, i64 %55
  store ptr %57, ptr @buf_p, align 8, !tbaa !26
  br label %.loopexit

.loopexit:                                        ; preds = %15, %19, %.preheader, %42, %51, %54
  %.042 = phi i32 [ 0, %54 ], [ -1, %51 ], [ -1, %42 ], [ 0, %.preheader ], [ %20, %19 ], [ %20, %15 ]
  ret i32 %.042
}